target datalayout = "e-m:e-p270:32:32-p271:32:32-p272:64:64-i64:64-i128:128-f80:128-n8:16:32:64-S128"
target triple = "x86_64-pc-linux-gnu"

%struct.Expr = type { i32 }
%struct.SQLValueFunction = type { %struct.Expr, i32, i32, i32, i32 }

; Function Attrs: nounwind uwtable
define internal ptr @transformSQLValueFunction(ptr noundef %0, ptr noundef %1) #0 {
  %3 = alloca ptr, align 8
  %4 = alloca ptr, align 8
  store ptr %0, ptr %3, align 8
  store ptr %1, ptr %4, align 8
  %5 = load ptr, ptr %4, align 8
  %6 = getelementptr inbounds nuw %struct.SQLValueFunction, ptr %5, i32 0, i32 1
  %7 = load i32, ptr %6, align 4
  switch i32 %7, label %62 [
    i32 0, label %8
    i32 1, label %11
    i32 2, label %14
    i32 3, label %23
    i32 4, label %26
    i32 5, label %35
    i32 6, label %38
    i32 7, label %47
    i32 8, label %50
    i32 9, label %59
    i32 10, label %59
    i32 11, label %59
    i32 12, label %59
    i32 13, label %59
    i32 14, label %59
  ]

8:                                                ; preds = %2
  %9 = load ptr, ptr %4, align 8
  %10 = getelementptr inbounds nuw %struct.SQLValueFunction, ptr %9, i32 0, i32 2
  store i32 1082, ptr %10, align 4
  br label %62

11:                                               ; preds = %2
  %12 = load ptr, ptr %4, align 8
  %13 = getelementptr inbounds nuw %struct.SQLValueFunction, ptr %12, i32 0, i32 2
  store i32 1266, ptr %13, align 4
  br label %62

14:                                               ; preds = %2
  %15 = load ptr, ptr %4, align 8
  %16 = getelementptr inbounds nuw %struct.SQLValueFunction, ptr %15, i32 0, i32 2
  store i32 1266, ptr %16, align 4
  %17 = load ptr, ptr %4, align 8
  %18 = getelementptr inbounds nuw %struct.SQLValueFunction, ptr %17, i32 0, i32 3
  %19 = load i32, ptr %18, align 4
  %20 = call i32 @anytime_typmod_check(i1 noundef zeroext true, i32 noundef %19)
  %21 = load ptr, ptr %4, align 8
  %22 = getelementptr inbounds nuw %struct.SQLValueFunction, ptr %21, i32 0, i32 3
  store i32 %20, ptr %22, align 4
  br label %62

23:                                               ; preds = %2
  %24 = load ptr, ptr %4, align 8
  %25 = getelementptr inbounds nuw %struct.SQLValueFunction, ptr %24, i32 0, i32 2
  store i32 1184, ptr %25, align 4
  br label %62

26:                                               ; preds = %2
  %27 = load ptr, ptr %4, align 8
  %28 = getelementptr inbounds nuw %struct.SQLValueFunction, ptr %27, i32 0, i32 2
  store i32 1184, ptr %28, align 4
  %29 = load ptr, ptr %4, align 8
  %30 = getelementptr inbounds nuw %struct.SQLValueFunction, ptr %29, i32 0, i32 3
  %31 = load i32, ptr %30, align 4
  %32 = call i32 @anytimestamp_typmod_check(i1 noundef zeroext true, i32 noundef %31)
  %33 = load ptr, ptr %4, align 8
  %34 = getelementptr inbounds nuw %struct.SQLValueFunction, ptr %33, i32 0, i32 3
  store i32 %32, ptr %34, align 4
  br label %62

35:                                               ; preds = %2
  %36 = load ptr, ptr %4, align 8
  %37 = getelementptr inbounds nuw %struct.SQLValueFunction, ptr %36, i32 0, i32 2
  store i32 1083, ptr %37, align 4
  br label %62

38:                                               ; preds = %2
  %39 = load ptr, ptr %4, align 8
  %40 = getelementptr inbounds nuw %struct.SQLValueFunction, ptr %39, i32 0, i32 2
  store i32 1083, ptr %40, align 4
  %41 = load ptr, ptr %4, align 8
  %42 = getelementptr inbounds nuw %struct.SQLValueFunction, ptr %41, i32 0, i32 3
  %43 = load i32, ptr %42, align 4
  %44 = call i32 @anytime_typmod_check(i1 noundef zeroext false, i32 noundef %43)
  %45 = load ptr, ptr %4, align 8
  %46 = getelementptr inbounds nuw %struct.SQLValueFunction, ptr %45, i32 0, i32 3
  store i32 %44, ptr %46, align 4
  br label %62

47:                                               ; preds = %2
  %48 = load ptr, ptr %4, align 8
  %49 = getelementptr inbounds nuw %struct.SQLValueFunction, ptr %48, i32 0, i32 2
  store i32 1114, ptr %49, align 4
  br label %62

50:                                               ; preds = %2
  %51 = load ptr, ptr %4, align 8
  %52 = getelementptr inbounds nuw %struct.SQLValueFunction, ptr %51, i32 0, i32 2
  store i32 1114, ptr %52, align 4
  %53 = load ptr, ptr %4, align 8
  %54 = getelementptr inbounds nuw %struct.SQLValueFunction, ptr %53, i32 0, i32 3
  %55 = load i32, ptr %54, align 4
  %56 = call i32 @anytimestamp_typmod_check(i1 noundef zeroext false, i32 noundef %55)
  %57 = load ptr, ptr %4, align 8
  %58 = getelementptr inbounds nuw %struct.SQLValueFunction, ptr %57, i32 0, i32 3
  store i32 %56, ptr %58, align 4
  br label %62

59:                                               ; preds = %2, %2, %2, %2, %2, %2
  %60 = load ptr, ptr %4, align 8
  %61 = getelementptr inbounds nuw %struct.SQLValueFunction, ptr %60, i32 0, i32 2
  store i32 19, ptr %61, align 4
  br label %62

62:                                               ; preds = %2, %59, %50, %47, %38, %35, %26, %23, %14, %11, %8
  %63 = load ptr, ptr %4, align 8
  ret ptr %63
}