; Function Attrs: nounwind uwtable
define internal fastcc noundef nonnull ptr @transformSQLValueFunction(ptr noundef nonnull returned captures(ret: address, provenance) %0) unnamed_addr #0 {
  %2 = getelementptr inbounds nuw i8, ptr %0, i64 4
  %3 = load i32, ptr %2, align 4
  switch i32 %3, label %36 [
    i32 0, label %4
    i32 1, label %6
    i32 2, label %8
    i32 3, label %13
    i32 4, label %15
    i32 5, label %20
    i32 6, label %22
    i32 7, label %27
    i32 8, label %29
    i32 9, label %34
    i32 10, label %34
    i32 11, label %34
    i32 12, label %34
    i32 13, label %34
    i32 14, label %34
  ]

4:                                                ; preds = %1
  %5 = getelementptr inbounds nuw i8, ptr %0, i64 8
  store i32 1082, ptr %5, align 4
  br label %36

6:                                                ; preds = %1
  %7 = getelementptr inbounds nuw i8, ptr %0, i64 8
  store i32 1266, ptr %7, align 4
  br label %36

8:                                                ; preds = %1
  %9 = getelementptr inbounds nuw i8, ptr %0, i64 8
  store i32 1266, ptr %9, align 4
  %10 = getelementptr inbounds nuw i8, ptr %0, i64 12
  %11 = load i32, ptr %10, align 4
  %12 = tail call i32 @anytime_typmod_check(i1 noundef zeroext true, i32 noundef %11) #9
  store i32 %12, ptr %10, align 4
  br label %36

13:                                               ; preds = %1
  %14 = getelementptr inbounds nuw i8, ptr %0, i64 8
  store i32 1184, ptr %14, align 4
  br label %36

15:                                               ; preds = %1
  %16 = getelementptr inbounds nuw i8, ptr %0, i64 8
  store i32 1184, ptr %16, align 4
  %17 = getelementptr inbounds nuw i8, ptr %0, i64 12
  %18 = load i32, ptr %17, align 4
  %19 = tail call i32 @anytimestamp_typmod_check(i1 noundef zeroext true, i32 noundef %18) #9
  store i32 %19, ptr %17, align 4
  br label %36

20:                                               ; preds = %1
  %21 = getelementptr inbounds nuw i8, ptr %0, i64 8
  store i32 1083, ptr %21, align 4
  br label %36

22:                                               ; preds = %1
  %23 = getelementptr inbounds nuw i8, ptr %0, i64 8
  store i32 1083, ptr %23, align 4
  %24 = getelementptr inbounds nuw i8, ptr %0, i64 12
  %25 = load i32, ptr %24, align 4
  %26 = tail call i32 @anytime_typmod_check(i1 noundef zeroext false, i32 noundef %25) #9
  store i32 %26, ptr %24, align 4
  br label %36

27:                                               ; preds = %1
  %28 = getelementptr inbounds nuw i8, ptr %0, i64 8
  store i32 1114, ptr %28, align 4
  br label %36

29:                                               ; preds = %1
  %30 = getelementptr inbounds nuw i8, ptr %0, i64 8
  store i32 1114, ptr %30, align 4
  %31 = getelementptr inbounds nuw i8, ptr %0, i64 12
  %32 = load i32, ptr %31, align 4
  %33 = tail call i32 @anytimestamp_typmod_check(i1 noundef zeroext false, i32 noundef %32) #9
  store i32 %33, ptr %31, align 4
  br label %36

34:                                               ; preds = %1, %1, %1, %1, %1, %1
  %35 = getelementptr inbounds nuw i8, ptr %0, i64 8
  store i32 19, ptr %35, align 4
  br label %36

36:                                               ; preds = %34, %29, %27, %22, %20, %15, %13, %8, %6, %4, %1
  ret ptr %0
}